; Function Attrs: nounwind uwtable
define internal i32 @protocol_getsock(ptr noundef %0, ptr noundef %1) #0 {
  %3 = getelementptr inbounds nuw i8, ptr %0, i64 24
  %4 = load ptr, ptr %3, align 8, !tbaa !109
  %.not = icmp eq ptr %4, null
  br i1 %.not, label %15, label %5

5:                                                ; preds = %2
  %6 = getelementptr inbounds nuw i8, ptr %4, i64 960
  %7 = load ptr, ptr %6, align 8, !tbaa !124
  %8 = getelementptr inbounds nuw i8, ptr %7, i64 64
  %9 = load ptr, ptr %8, align 8, !tbaa !249
  %.not14 = icmp eq ptr %9, null
  br i1 %.not14, label %12, label %10

10:                                               ; preds = %5
  %11 = tail call i32 %9(ptr noundef nonnull %0, ptr noundef nonnull %4, ptr noundef %1) #19
  br label %15

12:                                               ; preds = %5
  %13 = tail call i32 @Curl_conn_get_socket(ptr noundef nonnull %0, i32 noundef 0) #19
  %.not15 = icmp eq i32 %13, -1
  br i1 %.not15, label %15, label %14

14:                                               ; preds = %12
  store i32 %13, ptr %1, align 4, !tbaa !28
  br label %15

15:                                               ; preds = %12, %2, %14, %10
  %.0 = phi i32 [ %11, %10 ], [ 1, %14 ], [ 0, %2 ], [ 0, %12 ]
  ret i32 %.0
}